
a.out:     file format elf64-x86-64


Disassembly of section .init:

0000000000401000 <_init>:
  401000:	f3 0f 1e fa          	endbr64 
  401004:	48 83 ec 08          	sub    $0x8,%rsp
  401008:	48 8b 05 e9 2f 00 00 	mov    0x2fe9(%rip),%rax        # 403ff8 <__gmon_start__>
  40100f:	48 85 c0             	test   %rax,%rax
  401012:	74 02                	je     401016 <_init+0x16>
  401014:	ff d0                	callq  *%rax
  401016:	48 83 c4 08          	add    $0x8,%rsp
  40101a:	c3                   	retq   

Disassembly of section .plt:

0000000000401020 <.plt>:
  401020:	ff 35 e2 2f 00 00    	pushq  0x2fe2(%rip)        # 404008 <_GLOBAL_OFFSET_TABLE_+0x8>
  401026:	ff 25 e4 2f 00 00    	jmpq   *0x2fe4(%rip)        # 404010 <_GLOBAL_OFFSET_TABLE_+0x10>
  40102c:	0f 1f 40 00          	nopl   0x0(%rax)

0000000000401030 <dl_iterate_phdr@plt>:
  401030:	ff 25 e2 2f 00 00    	jmpq   *0x2fe2(%rip)        # 404018 <dl_iterate_phdr@GLIBC_2.2.5>
  401036:	68 00 00 00 00       	pushq  $0x0
  40103b:	e9 e0 ff ff ff       	jmpq   401020 <.plt>

0000000000401040 <puts@plt>:
  401040:	ff 25 da 2f 00 00    	jmpq   *0x2fda(%rip)        # 404020 <puts@GLIBC_2.2.5>
  401046:	68 01 00 00 00       	pushq  $0x1
  40104b:	e9 d0 ff ff ff       	jmpq   401020 <.plt>

0000000000401050 <__stack_chk_fail@plt>:
  401050:	ff 25 d2 2f 00 00    	jmpq   *0x2fd2(%rip)        # 404028 <__stack_chk_fail@GLIBC_2.4>
  401056:	68 02 00 00 00       	pushq  $0x2
  40105b:	e9 c0 ff ff ff       	jmpq   401020 <.plt>

0000000000401060 <printf@plt>:
  401060:	ff 25 ca 2f 00 00    	jmpq   *0x2fca(%rip)        # 404030 <printf@GLIBC_2.2.5>
  401066:	68 03 00 00 00       	pushq  $0x3
  40106b:	e9 b0 ff ff ff       	jmpq   401020 <.plt>

0000000000401070 <replaceFunc@plt>:
  401070:	ff 25 c2 2f 00 00    	jmpq   *0x2fc2(%rip)        # 404038 <replaceFunc>
  401076:	68 04 00 00 00       	pushq  $0x4
  40107b:	e9 a0 ff ff ff       	jmpq   401020 <.plt>

0000000000401080 <strstr@plt>:
  401080:	ff 25 ba 2f 00 00    	jmpq   *0x2fba(%rip)        # 404040 <strstr@GLIBC_2.2.5>
  401086:	68 05 00 00 00       	pushq  $0x5
  40108b:	e9 90 ff ff ff       	jmpq   401020 <.plt>

Disassembly of section .text:

0000000000401090 <_start>:
  401090:	f3 0f 1e fa          	endbr64 
  401094:	31 ed                	xor    %ebp,%ebp
  401096:	49 89 d1             	mov    %rdx,%r9
  401099:	5e                   	pop    %rsi
  40109a:	48 89 e2             	mov    %rsp,%rdx
  40109d:	48 83 e4 f0          	and    $0xfffffffffffffff0,%rsp
  4010a1:	50                   	push   %rax
  4010a2:	54                   	push   %rsp
  4010a3:	49 c7 c0 50 13 40 00 	mov    $0x401350,%r8
  4010aa:	48 c7 c1 e0 12 40 00 	mov    $0x4012e0,%rcx
  4010b1:	48 c7 c7 a7 11 40 00 	mov    $0x4011a7,%rdi
  4010b8:	ff 15 32 2f 00 00    	callq  *0x2f32(%rip)        # 403ff0 <__libc_start_main@GLIBC_2.2.5>
  4010be:	f4                   	hlt    
  4010bf:	90                   	nop

00000000004010c0 <_dl_relocate_static_pie>:
  4010c0:	f3 0f 1e fa          	endbr64 
  4010c4:	c3                   	retq   
  4010c5:	66 2e 0f 1f 84 00 00 	nopw   %cs:0x0(%rax,%rax,1)
  4010cc:	00 00 00 
  4010cf:	90                   	nop

00000000004010d0 <deregister_tm_clones>:
  4010d0:	b8 5f 40 40 00       	mov    $0x40405f,%eax
  4010d5:	55                   	push   %rbp
  4010d6:	48 2d 58 40 40 00    	sub    $0x404058,%rax
  4010dc:	48 83 f8 0e          	cmp    $0xe,%rax
  4010e0:	48 89 e5             	mov    %rsp,%rbp
  4010e3:	76 1b                	jbe    401100 <deregister_tm_clones+0x30>
  4010e5:	b8 00 00 00 00       	mov    $0x0,%eax
  4010ea:	48 85 c0             	test   %rax,%rax
  4010ed:	74 11                	je     401100 <deregister_tm_clones+0x30>
  4010ef:	5d                   	pop    %rbp
  4010f0:	bf 58 40 40 00       	mov    $0x404058,%edi
  4010f5:	ff e0                	jmpq   *%rax
  4010f7:	66 0f 1f 84 00 00 00 	nopw   0x0(%rax,%rax,1)
  4010fe:	00 00 
  401100:	5d                   	pop    %rbp
  401101:	c3                   	retq   
  401102:	0f 1f 40 00          	nopl   0x0(%rax)
  401106:	66 2e 0f 1f 84 00 00 	nopw   %cs:0x0(%rax,%rax,1)
  40110d:	00 00 00 

0000000000401110 <register_tm_clones>:
  401110:	be 58 40 40 00       	mov    $0x404058,%esi
  401115:	55                   	push   %rbp
  401116:	48 81 ee 58 40 40 00 	sub    $0x404058,%rsi
  40111d:	48 c1 fe 03          	sar    $0x3,%rsi
  401121:	48 89 e5             	mov    %rsp,%rbp
  401124:	48 89 f0             	mov    %rsi,%rax
  401127:	48 c1 e8 3f          	shr    $0x3f,%rax
  40112b:	48 01 c6             	add    %rax,%rsi
  40112e:	48 d1 fe             	sar    %rsi
  401131:	74 15                	je     401148 <register_tm_clones+0x38>
  401133:	b8 00 00 00 00       	mov    $0x0,%eax
  401138:	48 85 c0             	test   %rax,%rax
  40113b:	74 0b                	je     401148 <register_tm_clones+0x38>
  40113d:	5d                   	pop    %rbp
  40113e:	bf 58 40 40 00       	mov    $0x404058,%edi
  401143:	ff e0                	jmpq   *%rax
  401145:	0f 1f 00             	nopl   (%rax)
  401148:	5d                   	pop    %rbp
  401149:	c3                   	retq   
  40114a:	66 0f 1f 44 00 00    	nopw   0x0(%rax,%rax,1)

0000000000401150 <__do_global_dtors_aux>:
  401150:	80 3d 01 2f 00 00 00 	cmpb   $0x0,0x2f01(%rip)        # 404058 <__TMC_END__>
  401157:	75 11                	jne    40116a <__do_global_dtors_aux+0x1a>
  401159:	55                   	push   %rbp
  40115a:	48 89 e5             	mov    %rsp,%rbp
  40115d:	e8 6e ff ff ff       	callq  4010d0 <deregister_tm_clones>
  401162:	5d                   	pop    %rbp
  401163:	c6 05 ee 2e 00 00 01 	movb   $0x1,0x2eee(%rip)        # 404058 <__TMC_END__>
  40116a:	f3 c3                	repz retq 
  40116c:	0f 1f 40 00          	nopl   0x0(%rax)

0000000000401170 <frame_dummy>:
  401170:	bf 08 3e 40 00       	mov    $0x403e08,%edi
  401175:	48 83 3f 00          	cmpq   $0x0,(%rdi)
  401179:	75 05                	jne    401180 <frame_dummy+0x10>
  40117b:	eb 93                	jmp    401110 <register_tm_clones>
  40117d:	0f 1f 00             	nopl   (%rax)
  401180:	b8 00 00 00 00       	mov    $0x0,%eax
  401185:	48 85 c0             	test   %rax,%rax
  401188:	74 f1                	je     40117b <frame_dummy+0xb>
  40118a:	55                   	push   %rbp
  40118b:	48 89 e5             	mov    %rsp,%rbp
  40118e:	ff d0                	callq  *%rax
  401190:	5d                   	pop    %rbp
  401191:	e9 7a ff ff ff       	jmpq   401110 <register_tm_clones>

0000000000401196 <say>:
  401196:	55                   	push   %rbp
  401197:	48 89 e5             	mov    %rsp,%rbp
  40119a:	bf 04 20 40 00       	mov    $0x402004,%edi
  40119f:	e8 9c fe ff ff       	callq  401040 <puts@plt>
  4011a4:	90                   	nop
  4011a5:	5d                   	pop    %rbp
  4011a6:	c3                   	retq   

00000000004011a7 <main>:
  4011a7:	55                   	push   %rbp
  4011a8:	48 89 e5             	mov    %rsp,%rbp
  4011ab:	48 83 ec 10          	sub    $0x10,%rsp
  4011af:	48 c7 45 f8 30 40 40 	movq   $0x404030,-0x8(%rbp)
  4011b6:	00 
  4011b7:	48 8b 45 f8          	mov    -0x8(%rbp),%rax
  4011bb:	48 c7 00 96 11 40 00 	movq   $0x401196,(%rax)
  4011c2:	b8 00 00 00 00       	mov    $0x0,%eax
  4011c7:	e8 a4 fe ff ff       	callq  401070 <replaceFunc@plt>
  4011cc:	bf 18 20 40 00       	mov    $0x402018,%edi
  4011d1:	b8 00 00 00 00       	mov    $0x0,%eax
  4011d6:	e8 7b 00 00 00       	callq  401256 <hook>
  4011db:	b8 00 00 00 00       	mov    $0x0,%eax
  4011e0:	c9                   	leaveq 
  4011e1:	c3                   	retq   

00000000004011e2 <hookCallback>:
  4011e2:	55                   	push   %rbp
  4011e3:	48 89 e5             	mov    %rsp,%rbp
  4011e6:	48 83 ec 20          	sub    $0x20,%rsp
  4011ea:	48 89 7d f8          	mov    %rdi,-0x8(%rbp)
  4011ee:	48 89 75 f0          	mov    %rsi,-0x10(%rbp)
  4011f2:	48 89 55 e8          	mov    %rdx,-0x18(%rbp)
  4011f6:	48 8b 45 f8          	mov    -0x8(%rbp),%rax
  4011fa:	48 8b 40 08          	mov    0x8(%rax),%rax
  4011fe:	48 89 c7             	mov    %rax,%rdi
  401201:	e8 3a fe ff ff       	callq  401040 <puts@plt>
  401206:	48 8b 45 e8          	mov    -0x18(%rbp),%rax
  40120a:	48 8b 10             	mov    (%rax),%rdx
  40120d:	48 8b 45 f8          	mov    -0x8(%rbp),%rax
  401211:	48 8b 40 08          	mov    0x8(%rax),%rax
  401215:	48 89 d6             	mov    %rdx,%rsi
  401218:	48 89 c7             	mov    %rax,%rdi
  40121b:	e8 60 fe ff ff       	callq  401080 <strstr@plt>
  401220:	48 85 c0             	test   %rax,%rax
  401223:	74 2a                	je     40124f <hookCallback+0x6d>
  401225:	48 8b 45 f8          	mov    -0x8(%rbp),%rax
  401229:	48 8b 00             	mov    (%rax),%rax
  40122c:	48 89 c6             	mov    %rax,%rsi
  40122f:	48 8d 3d ea 0d 00 00 	lea    0xdea(%rip),%rdi        # 402020 <_IO_stdin_used+0x20>
  401236:	b8 00 00 00 00       	mov    $0x0,%eax
  40123b:	e8 20 fe ff ff       	callq  401060 <printf@plt>
  401240:	48 8b 45 f8          	mov    -0x8(%rbp),%rax
  401244:	48 8b 10             	mov    (%rax),%rdx
  401247:	48 8b 45 e8          	mov    -0x18(%rbp),%rax
  40124b:	48 89 50 10          	mov    %rdx,0x10(%rax)
  40124f:	b8 00 00 00 00       	mov    $0x0,%eax
  401254:	c9                   	leaveq 
  401255:	c3                   	retq   

0000000000401256 <hook>:
  401256:	55                   	push   %rbp
  401257:	48 89 e5             	mov    %rsp,%rbp
  40125a:	48 83 ec 40          	sub    $0x40,%rsp
  40125e:	48 89 7d c8          	mov    %rdi,-0x38(%rbp)
  401262:	64 48 8b 04 25 28 00 	mov    %fs:0x28,%rax
  401269:	00 00 
  40126b:	48 89 45 f8          	mov    %rax,-0x8(%rbp)
  40126f:	31 c0                	xor    %eax,%eax
  401271:	c7 45 dc 00 00 00 00 	movl   $0x0,-0x24(%rbp)
  401278:	48 c7 45 e0 00 00 00 	movq   $0x0,-0x20(%rbp)
  40127f:	00 
  401280:	48 c7 45 e8 00 00 00 	movq   $0x0,-0x18(%rbp)
  401287:	00 
  401288:	48 c7 45 f0 00 00 00 	movq   $0x0,-0x10(%rbp)
  40128f:	00 
  401290:	48 8b 45 c8          	mov    -0x38(%rbp),%rax
  401294:	48 89 45 e0          	mov    %rax,-0x20(%rbp)
  401298:	48 8d 45 e0          	lea    -0x20(%rbp),%rax
  40129c:	48 89 c6             	mov    %rax,%rsi
  40129f:	48 c7 c0 e2 11 40 00 	mov    $0x4011e2,%rax
  4012a6:	48 89 c7             	mov    %rax,%rdi
  4012a9:	e8 82 fd ff ff       	callq  401030 <dl_iterate_phdr@plt>
  4012ae:	89 45 dc             	mov    %eax,-0x24(%rbp)
  4012b1:	83 7d dc 00          	cmpl   $0x0,-0x24(%rbp)
  4012b5:	74 13                	je     4012ca <hook+0x74>
  4012b7:	48 8d 3d 81 0d 00 00 	lea    0xd81(%rip),%rdi        # 40203f <_IO_stdin_used+0x3f>
  4012be:	e8 7d fd ff ff       	callq  401040 <puts@plt>
  4012c3:	b8 ff ff ff ff       	mov    $0xffffffff,%eax
  4012c8:	eb 00                	jmp    4012ca <hook+0x74>
  4012ca:	48 8b 55 f8          	mov    -0x8(%rbp),%rdx
  4012ce:	64 48 33 14 25 28 00 	xor    %fs:0x28,%rdx
  4012d5:	00 00 
  4012d7:	74 05                	je     4012de <hook+0x88>
  4012d9:	e8 72 fd ff ff       	callq  401050 <__stack_chk_fail@plt>
  4012de:	c9                   	leaveq 
  4012df:	c3                   	retq   

00000000004012e0 <__libc_csu_init>:
  4012e0:	f3 0f 1e fa          	endbr64 
  4012e4:	41 57                	push   %r15
  4012e6:	4c 8d 3d 0b 2b 00 00 	lea    0x2b0b(%rip),%r15        # 403df8 <__frame_dummy_init_array_entry>
  4012ed:	41 56                	push   %r14
  4012ef:	49 89 d6             	mov    %rdx,%r14
  4012f2:	41 55                	push   %r13
  4012f4:	49 89 f5             	mov    %rsi,%r13
  4012f7:	41 54                	push   %r12
  4012f9:	41 89 fc             	mov    %edi,%r12d
  4012fc:	55                   	push   %rbp
  4012fd:	48 8d 2d fc 2a 00 00 	lea    0x2afc(%rip),%rbp        # 403e00 <__do_global_dtors_aux_fini_array_entry>
  401304:	53                   	push   %rbx
  401305:	4c 29 fd             	sub    %r15,%rbp
  401308:	48 83 ec 08          	sub    $0x8,%rsp
  40130c:	e8 ef fc ff ff       	callq  401000 <_init>
  401311:	48 c1 fd 03          	sar    $0x3,%rbp
  401315:	74 1f                	je     401336 <__libc_csu_init+0x56>
  401317:	31 db                	xor    %ebx,%ebx
  401319:	0f 1f 80 00 00 00 00 	nopl   0x0(%rax)
  401320:	4c 89 f2             	mov    %r14,%rdx
  401323:	4c 89 ee             	mov    %r13,%rsi
  401326:	44 89 e7             	mov    %r12d,%edi
  401329:	41 ff 14 df          	callq  *(%r15,%rbx,8)
  40132d:	48 83 c3 01          	add    $0x1,%rbx
  401331:	48 39 dd             	cmp    %rbx,%rbp
  401334:	75 ea                	jne    401320 <__libc_csu_init+0x40>
  401336:	48 83 c4 08          	add    $0x8,%rsp
  40133a:	5b                   	pop    %rbx
  40133b:	5d                   	pop    %rbp
  40133c:	41 5c                	pop    %r12
  40133e:	41 5d                	pop    %r13
  401340:	41 5e                	pop    %r14
  401342:	41 5f                	pop    %r15
  401344:	c3                   	retq   
  401345:	66 66 2e 0f 1f 84 00 	data16 nopw %cs:0x0(%rax,%rax,1)
  40134c:	00 00 00 00 

0000000000401350 <__libc_csu_fini>:
  401350:	f3 0f 1e fa          	endbr64 
  401354:	c3                   	retq   

Disassembly of section .fini:

0000000000401358 <_fini>:
  401358:	f3 0f 1e fa          	endbr64 
  40135c:	48 83 ec 08          	sub    $0x8,%rsp
  401360:	48 83 c4 08          	add    $0x8,%rsp
  401364:	c3                   	retq   
